target datalayout = "e-m:e-p270:32:32-p271:32:32-p272:64:64-i64:64-i128:128-f80:128-n8:16:32:64-S128"
target triple = "x86_64-pc-linux-gnu"

%struct.Ivy_Obj_t_ = type { i32, i32, i32, i32, ptr, ptr, ptr, ptr, ptr, ptr, ptr, ptr }
%struct.Ivy_FraigMan_t_ = type { ptr, i64, i64, ptr, ptr, i32, ptr, ptr, i32, ptr, ptr, %struct.Ivy_FraigList_t_, %struct.Ivy_FraigList_t_, i32, ptr, i32, ptr, ptr, i32, i32, i32, i32, i32, i32, i32, i32, i32, i32, i32, i32, i32, i64, i64, i64, i64, i64, i64, i64, i64, i64, i64 }
%struct.Ivy_FraigList_t_ = type { ptr, ptr, i32 }
%struct.Ivy_FraigSim_t_ = type { i32, ptr, ptr, ptr, [0 x i32] }

; Function Attrs: inlinehint nounwind uwtable
define internal ptr @Ivy_ObjSim(ptr noundef %0) #4 {
  %2 = alloca ptr, align 8
  store ptr %0, ptr %2, align 8, !tbaa !72
  %3 = load ptr, ptr %2, align 8, !tbaa !72
  %4 = getelementptr inbounds nuw %struct.Ivy_Obj_t_, ptr %3, i32 0, i32 6
  %5 = load ptr, ptr %4, align 8, !tbaa !126
  ret ptr %5
}

; Function Attrs: nounwind uwtable
define i32 @Ivy_NodeHasZeroSim(ptr noundef %0, ptr noundef %1) #0 {
  %3 = alloca i32, align 4
  %4 = alloca ptr, align 8
  %5 = alloca ptr, align 8
  %6 = alloca ptr, align 8
  %7 = alloca i32, align 4
  %8 = alloca i32, align 4
  store ptr %0, ptr %4, align 8, !tbaa !60
  store ptr %1, ptr %5, align 8, !tbaa !72
  call void @llvm.lifetime.start.p0(i64 8, ptr %6) #12
  call void @llvm.lifetime.start.p0(i64 4, ptr %7) #12
  %9 = load ptr, ptr %5, align 8, !tbaa !72
  %10 = call ptr @Ivy_ObjSim(ptr noundef %9)
  store ptr %10, ptr %6, align 8, !tbaa !102
  store i32 0, ptr %7, align 4, !tbaa !44
  br label %11

11:                                               ; preds = %27, %2
  %12 = load i32, ptr %7, align 4, !tbaa !44
  %13 = load ptr, ptr %4, align 8, !tbaa !60
  %14 = getelementptr inbounds nuw %struct.Ivy_FraigMan_t_, ptr %13, i32 0, i32 5
  %15 = load i32, ptr %14, align 8, !tbaa !100
  %16 = icmp slt i32 %12, %15
  br i1 %16, label %17, label %30

17:                                               ; preds = %11
  %18 = load ptr, ptr %6, align 8, !tbaa !102
  %19 = getelementptr inbounds nuw %struct.Ivy_FraigSim_t_, ptr %18, i32 0, i32 4
  %20 = load i32, ptr %7, align 4, !tbaa !44
  %21 = sext i32 %20 to i64
  %22 = getelementptr inbounds [0 x i32], ptr %19, i64 0, i64 %21
  %23 = load i32, ptr %22, align 4, !tbaa !44
  %24 = icmp ne i32 %23, 0
  br i1 %24, label %25, label %26

25:                                               ; preds = %17
  store i32 0, ptr %3, align 4
  store i32 1, ptr %8, align 4
  br label %31

26:                                               ; preds = %17
  br label %27

27:                                               ; preds = %26
  %28 = load i32, ptr %7, align 4, !tbaa !44
  %29 = add nsw i32 %28, 1
  store i32 %29, ptr %7, align 4, !tbaa !44
  br label %11, !llvm.loop !142

30:                                               ; preds = %11
  store i32 1, ptr %3, align 4
  store i32 1, ptr %8, align 4
  br label %31

31:                                               ; preds = %30, %25
  call void @llvm.lifetime.end.p0(i64 4, ptr %7) #12
  call void @llvm.lifetime.end.p0(i64 8, ptr %6) #12
  %32 = load i32, ptr %3, align 4
  ret i32 %32
}