; Function Attrs: nofree norecurse nosync nounwind memory(read, inaccessiblemem: none) uwtable
define range(i32 0, 2) i32 @Ivy_NodeHasZeroSim(ptr noundef readonly captures(none) %0, ptr noundef readonly captures(none) %1) local_unnamed_addr #10 {
  %3 = getelementptr i8, ptr %1, i64 32
  %.val = load ptr, ptr %3, align 8, !tbaa !103
  %4 = getelementptr inbounds nuw i8, ptr %.val, i64 32
  %5 = getelementptr inbounds nuw i8, ptr %0, i64 40
  %6 = load i32, ptr %5, align 8, !tbaa !96
  %7 = icmp sgt i32 %6, 0
  br i1 %7, label %.lr.ph.preheader, label %._crit_edge

.lr.ph.preheader:                                 ; preds = %2
  %wide.trip.count = zext nneg i32 %6 to i64
  br label %.lr.ph

8:                                                ; preds = %.lr.ph
  %indvars.iv.next = add nuw nsw i64 %indvars.iv, 1
  %exitcond.not = icmp eq i64 %indvars.iv.next, %wide.trip.count
  br i1 %exitcond.not, label %._crit_edge, label %.lr.ph, !llvm.loop !157

.lr.ph:                                           ; preds = %.lr.ph.preheader, %8
  %indvars.iv = phi i64 [ 0, %.lr.ph.preheader ], [ %indvars.iv.next, %8 ]
  %9 = getelementptr inbounds nuw [0 x i32], ptr %4, i64 0, i64 %indvars.iv
  %10 = load i32, ptr %9, align 4, !tbaa !38
  %.not = icmp eq i32 %10, 0
  br i1 %.not, label %8, label %._crit_edge

._crit_edge:                                      ; preds = %.lr.ph, %8, %2
  %.06 = phi i32 [ 1, %2 ], [ 1, %8 ], [ 0, %.lr.ph ]
  ret i32 %.06
}